; Function Attrs: nounwind uwtable
define internal fastcc range(i32 -1, 1) i32 @set_inheritable(i32 noundef %0, i32 noundef %1, i32 noundef range(i32 0, 2) %2, ptr noundef %3) unnamed_addr #0 {
  %5 = icmp eq ptr %3, null
  %6 = icmp ne i32 %1, 0
  %or.cond = or i1 %6, %5
  br i1 %or.cond, label %20, label %7

7:                                                ; preds = %4
  %8 = load atomic i32, ptr %3 monotonic, align 4
  %9 = icmp eq i32 %8, -1
  br i1 %9, label %10, label %18

10:                                               ; preds = %7
  %11 = tail call i32 (i32, i32, ...) @fcntl64(i32 noundef %0, i32 noundef 1, i32 noundef 0) #17
  %12 = icmp eq i32 %11, -1
  br i1 %12, label %13, label %get_inheritable.exit

13:                                               ; preds = %10
  %.not.i = icmp eq i32 %2, 0
  br i1 %.not.i, label %.critedge, label %14

14:                                               ; preds = %13
  %15 = load ptr, ptr @PyExc_OSError, align 8, !tbaa !188
  %16 = tail call ptr @PyErr_SetFromErrno(ptr noundef %15) #17
  br label %.critedge

get_inheritable.exit:                             ; preds = %10
  %17 = and i32 %11, 1
  store atomic i32 %17, ptr %3 monotonic, align 4
  br label %18

18:                                               ; preds = %get_inheritable.exit, %7
  %19 = load atomic i32, ptr %3 monotonic, align 4
  %.not37 = icmp eq i32 %19, 0
  br i1 %.not37, label %20, label %.critedge

20:                                               ; preds = %18, %4
  %.not38 = icmp eq i32 %2, 0
  br i1 %.not38, label %.thread, label %21

21:                                               ; preds = %20
  %22 = load atomic i32, ptr @set_inheritable.ioctl_works monotonic, align 4
  %.not39 = icmp eq i32 %22, 0
  br i1 %.not39, label %36, label %23

23:                                               ; preds = %21
  %. = select i1 %6, i64 21584, i64 21585
  %24 = tail call i32 (i32, i64, ...) @ioctl(i32 noundef %0, i64 noundef %., ptr noundef null) #17
  %.not40 = icmp eq i32 %24, 0
  br i1 %.not40, label %25, label %29

25:                                               ; preds = %23
  %26 = load atomic i32, ptr @set_inheritable.ioctl_works monotonic, align 4
  %27 = icmp eq i32 %26, -1
  br i1 %27, label %28, label %.critedge

28:                                               ; preds = %25
  store atomic i32 1, ptr @set_inheritable.ioctl_works monotonic, align 4
  br label %.critedge

29:                                               ; preds = %23
  %30 = tail call ptr @__errno_location() #19
  %31 = load i32, ptr %30, align 4, !tbaa !180
  switch i32 %31, label %32 [
    i32 9, label %36
    i32 25, label %35
    i32 13, label %35
  ]

32:                                               ; preds = %29
  %33 = load ptr, ptr @PyExc_OSError, align 8, !tbaa !188
  %34 = tail call ptr @PyErr_SetFromErrno(ptr noundef %33) #17
  br label %.critedge

35:                                               ; preds = %29, %29
  store atomic i32 0, ptr @set_inheritable.ioctl_works monotonic, align 4
  br label %36

36:                                               ; preds = %29, %35, %21
  %37 = tail call i32 (i32, i32, ...) @fcntl64(i32 noundef %0, i32 noundef 1) #17
  %38 = icmp slt i32 %37, 0
  br i1 %38, label %41, label %44

.thread:                                          ; preds = %20
  %39 = tail call i32 (i32, i32, ...) @fcntl64(i32 noundef %0, i32 noundef 1) #17
  %40 = icmp slt i32 %39, 0
  br i1 %40, label %.critedge, label %44

41:                                               ; preds = %36
  %42 = load ptr, ptr @PyExc_OSError, align 8, !tbaa !188
  %43 = tail call ptr @PyErr_SetFromErrno(ptr noundef %42) #17
  br label %.critedge

44:                                               ; preds = %.thread, %36
  %45 = phi i32 [ %39, %.thread ], [ %37, %36 ]
  %46 = and i32 %45, 2147483646
  %47 = or i32 %45, 1
  %.031 = select i1 %6, i32 %46, i32 %47
  %48 = icmp eq i32 %.031, %45
  br i1 %48, label %.critedge, label %49

49:                                               ; preds = %44
  %50 = tail call i32 (i32, i32, ...) @fcntl64(i32 noundef %0, i32 noundef 2, i32 noundef %.031) #17
  %51 = icmp sgt i32 %50, -1
  %brmerge = or i1 %.not38, %51
  %not. = xor i1 %51, true
  %.mux = sext i1 %not. to i32
  br i1 %brmerge, label %.critedge, label %52

52:                                               ; preds = %49
  %53 = load ptr, ptr @PyExc_OSError, align 8, !tbaa !188
  %54 = tail call ptr @PyErr_SetFromErrno(ptr noundef %53) #17
  br label %.critedge

.critedge:                                        ; preds = %.thread, %13, %14, %49, %52, %44, %41, %25, %28, %18, %32
  %.1 = phi i32 [ -1, %32 ], [ 0, %18 ], [ 0, %28 ], [ 0, %25 ], [ -1, %41 ], [ 0, %44 ], [ -1, %52 ], [ %.mux, %49 ], [ -1, %14 ], [ -1, %13 ], [ -1, %.thread ]
  ret i32 %.1
}